(dp0
S'Agian'
p1
I0
sS'Mike'
p2
I0
sS'Test P2 (All Wins)'
p3
I0
sS'Don'
p4
I947
sS"Tester's Brother"
p5
I224
sS'Phil'
p6
I693
sS'Rod'
p7
I291
sS'Declan'
p8
I993
sS'Wood'
p9
I0
sS'Jack'
p10
I675
sS'Terry'
p11
I0
sS'Again'
p12
I0
sS'New'
p13
I705
sS'Peter'
p14
I624
sS'Best'
p15
I998
s.