(dp0
S'Very'
p1
(lp2
F9.512742749018928
aS'W'
p3
aS'W'
p4
aS'N'
p5
ag5
ag5
ag5
asS'Test P2 (All Wins'
p6
(lp7
F93.31388640107026
aS'W'
p8
aS'W'
p9
aS'W'
p10
aS'W'
p11
aS'W'
p12
aS'N'
p13
asS'Test P3 (Some Wins)'
p14
(lp15
F73.21823278753045
aS'W'
p16
aS'N'
p17
ag17
aS'W'
p18
aS'W'
p19
aS'L'
p20
asS'Test P1 (No Wins)'
p21
(lp22
I0
aS'N'
p23
ag23
ag23
ag23
ag23
ag23
as.