(dp0
S'Test P3 (Some Wins)'
p1
(lp2
F73.21823278753045
aS'W'
p3
aS'N'
p4
ag4
aS'W'
p5
aS'W'
p6
aS'L'
p7
asS'Test P1 (No Wins)'
p8
(lp9
I0
aS'N'
p10
ag10
ag10
ag10
ag10
ag10
asS'Trung'
p11
(lp12
F2.3908525000000003
aS'N'
p13
ag13
ag13
ag13
ag13
ag13
as.